target datalayout = "e-m:e-p270:32:32-p271:32:32-p272:64:64-i64:64-i128:128-f80:128-n8:16:32:64-S128"
target triple = "x86_64-pc-linux-gnu"

%"class.std::__cxx11::basic_string" = type { %"struct.std::__cxx11::basic_string<char>::_Alloc_hider", i64, %union.anon }
%"struct.std::__cxx11::basic_string<char>::_Alloc_hider" = type { ptr }
%union.anon = type { i64, [8 x i8] }
%"class.std::basic_ios" = type { %"class.std::ios_base", ptr, i8, i8, ptr, ptr, ptr, ptr }
%"class.std::ios_base" = type { ptr, i64, i64, i32, i32, i32, ptr, %"struct.std::ios_base::_Words", [8 x %"struct.std::ios_base::_Words"], i32, ptr, %"class.std::locale" }
%"struct.std::ios_base::_Words" = type { ptr, i64 }
%"class.std::locale" = type { ptr }
%class.cmGraphVizWriter = type <{ %class.cmLinkItemGraphVisitor, %"class.std::__cxx11::basic_string", %class.cmGeneratedFileStream, %"class.std::map", %"class.std::map", %"class.std::__cxx11::basic_string", %"class.std::__cxx11::basic_string", %"class.std::__cxx11::basic_string", %"class.std::vector", ptr, i32, [4 x i8], %"class.std::map.22", i8, i8, i8, i8, i8, i8, i8, i8, i8, i8, i8, [5 x i8] }>
%class.cmLinkItemGraphVisitor = type { ptr, %"class.std::set", %"class.std::set.3" }
%"class.std::set" = type { %"class.std::_Rb_tree" }
%"class.std::_Rb_tree" = type { %"struct.std::_Rb_tree<std::__cxx11::basic_string<char>, std::__cxx11::basic_string<char>, std::_Identity<std::__cxx11::basic_string<char>>, std::less<std::__cxx11::basic_string<char>>>::_Rb_tree_impl" }
%"struct.std::_Rb_tree<std::__cxx11::basic_string<char>, std::__cxx11::basic_string<char>, std::_Identity<std::__cxx11::basic_string<char>>, std::less<std::__cxx11::basic_string<char>>>::_Rb_tree_impl" = type { %"struct.std::_Rb_tree_key_compare", %"struct.std::_Rb_tree_header" }
%"struct.std::_Rb_tree_key_compare" = type { %"struct.std::less" }
%"struct.std::less" = type { i8 }
%"struct.std::_Rb_tree_header" = type { %"struct.std::_Rb_tree_node_base", i64 }
%"struct.std::_Rb_tree_node_base" = type { i32, ptr, ptr, ptr }
%"class.std::set.3" = type { %"class.std::_Rb_tree.4" }
%"class.std::_Rb_tree.4" = type { %"struct.std::_Rb_tree<std::pair<std::__cxx11::basic_string<char>, std::__cxx11::basic_string<char>>, std::pair<std::__cxx11::basic_string<char>, std::__cxx11::basic_string<char>>, std::_Identity<std::pair<std::__cxx11::basic_string<char>, std::__cxx11::basic_string<char>>>, std::less<std::pair<std::__cxx11::basic_string<char>, std::__cxx11::basic_string<char>>>>::_Rb_tree_impl" }
%"struct.std::_Rb_tree<std::pair<std::__cxx11::basic_string<char>, std::__cxx11::basic_string<char>>, std::pair<std::__cxx11::basic_string<char>, std::__cxx11::basic_string<char>>, std::_Identity<std::pair<std::__cxx11::basic_string<char>, std::__cxx11::basic_string<char>>>, std::less<std::pair<std::__cxx11::basic_string<char>, std::__cxx11::basic_string<char>>>>::_Rb_tree_impl" = type { %"struct.std::_Rb_tree_key_compare.8", %"struct.std::_Rb_tree_header" }
%"struct.std::_Rb_tree_key_compare.8" = type { %"struct.std::less.9" }
%"struct.std::less.9" = type { i8 }
%class.cmGeneratedFileStream = type <{ %"class.std::basic_ofstream.base", %class.cmGeneratedFileStreamBase.base, [4 x i8], %"class.std::basic_ios" }>
%"class.std::basic_ofstream.base" = type { %"class.std::basic_ostream.base", %"class.std::basic_filebuf" }
%"class.std::basic_ostream.base" = type { ptr }
%"class.std::basic_filebuf" = type { %"class.std::basic_streambuf", %union.pthread_mutex_t, %"class.std::__basic_file", i32, %struct.__mbstate_t, %struct.__mbstate_t, %struct.__mbstate_t, ptr, i64, i8, i8, i8, i8, ptr, ptr, i8, ptr, ptr, i64, ptr, ptr }
%"class.std::basic_streambuf" = type { ptr, ptr, ptr, ptr, ptr, ptr, ptr, %"class.std::locale" }
%union.pthread_mutex_t = type { %struct.__pthread_mutex_s }
%struct.__pthread_mutex_s = type { i32, i32, i32, i32, i32, i16, i16, %struct.__pthread_internal_list }
%struct.__pthread_internal_list = type { ptr, ptr }
%"class.std::__basic_file" = type <{ ptr, i8, [7 x i8] }>
%struct.__mbstate_t = type { i32, %union.anon.11 }
%union.anon.11 = type { i32 }
%class.cmGeneratedFileStreamBase.base = type <{ %"class.std::__cxx11::basic_string", %"class.std::__cxx11::basic_string", %"class.std::__cxx11::basic_string", i8, i8, i8, i8 }>
%"class.std::map" = type { %"class.std::_Rb_tree.12" }
%"class.std::_Rb_tree.12" = type { %"struct.std::_Rb_tree<cmLinkItem, std::pair<const cmLinkItem, std::vector<cmGraphVizWriter::Connection>>, std::_Select1st<std::pair<const cmLinkItem, std::vector<cmGraphVizWriter::Connection>>>, std::less<cmLinkItem>>::_Rb_tree_impl" }
%"struct.std::_Rb_tree<cmLinkItem, std::pair<const cmLinkItem, std::vector<cmGraphVizWriter::Connection>>, std::_Select1st<std::pair<const cmLinkItem, std::vector<cmGraphVizWriter::Connection>>>, std::less<cmLinkItem>>::_Rb_tree_impl" = type { %"struct.std::_Rb_tree_key_compare.16", %"struct.std::_Rb_tree_header" }
%"struct.std::_Rb_tree_key_compare.16" = type { %"struct.std::less.17" }
%"struct.std::less.17" = type { i8 }
%"class.std::vector" = type { %"struct.std::_Vector_base" }
%"struct.std::_Vector_base" = type { %"struct.std::_Vector_base<cmsys::RegularExpression, std::allocator<cmsys::RegularExpression>>::_Vector_impl" }
%"struct.std::_Vector_base<cmsys::RegularExpression, std::allocator<cmsys::RegularExpression>>::_Vector_impl" = type { %"struct.std::_Vector_base<cmsys::RegularExpression, std::allocator<cmsys::RegularExpression>>::_Vector_impl_data" }
%"struct.std::_Vector_base<cmsys::RegularExpression, std::allocator<cmsys::RegularExpression>>::_Vector_impl_data" = type { ptr, ptr, ptr }
%"class.std::map.22" = type { %"class.std::_Rb_tree.23" }
%"class.std::_Rb_tree.23" = type { %"struct.std::_Rb_tree<std::__cxx11::basic_string<char>, std::pair<const std::__cxx11::basic_string<char>, std::__cxx11::basic_string<char>>, std::_Select1st<std::pair<const std::__cxx11::basic_string<char>, std::__cxx11::basic_string<char>>>, std::less<std::__cxx11::basic_string<char>>>::_Rb_tree_impl" }
%"struct.std::_Rb_tree<std::__cxx11::basic_string<char>, std::pair<const std::__cxx11::basic_string<char>, std::__cxx11::basic_string<char>>, std::_Select1st<std::pair<const std::__cxx11::basic_string<char>, std::__cxx11::basic_string<char>>>, std::less<std::__cxx11::basic_string<char>>>::_Rb_tree_impl" = type { %"struct.std::_Rb_tree_key_compare", %"struct.std::_Rb_tree_header" }
%class.cmLinkItem = type { %"class.std::__cxx11::basic_string", ptr, ptr, %"class.std::__cxx11::basic_string", i8, %class.cmListFileBacktrace }
%class.cmListFileBacktrace = type { %class.cmConstStack }
%class.cmConstStack = type { %"class.std::shared_ptr" }
%"class.std::shared_ptr" = type { %"class.std::__shared_ptr" }
%"class.std::__shared_ptr" = type { ptr, %"class.std::__shared_count" }
%"class.std::__shared_count" = type { ptr }

@.str.24 = private unnamed_addr constant [2 x i8] c"\22\00", align 1
@.str.30 = private unnamed_addr constant [4 x i8] c"egg\00", align 1
@.str.32 = private unnamed_addr constant [8 x i8] c"octagon\00", align 1
@.str.34 = private unnamed_addr constant [14 x i8] c"doubleoctagon\00", align 1
@.str.36 = private unnamed_addr constant [14 x i8] c"tripleoctagon\00", align 1
@.str.38 = private unnamed_addr constant [9 x i8] c"pentagon\00", align 1
@.str.40 = private unnamed_addr constant [8 x i8] c"hexagon\00", align 1
@.str.42 = private unnamed_addr constant [9 x i8] c"septagon\00", align 1
@.str.44 = private unnamed_addr constant [4 x i8] c"box\00", align 1
@.str.54 = private unnamed_addr constant [6 x i8] c"    \22\00", align 1
@.str.55 = private unnamed_addr constant [14 x i8] c"\22 [ label = \22\00", align 1
@.str.56 = private unnamed_addr constant [12 x i8] c"\22, shape = \00", align 1
@.str.57 = private unnamed_addr constant [5 x i8] c" ];\0A\00", align 1

; Function Attrs: mustprogress uwtable
define internal noundef ptr @_ZN12_GLOBAL__N_117getShapeForTargetERK10cmLinkItem(ptr noundef nonnull align 8 dereferenceable(104) %0) #4 {
  %2 = alloca ptr, align 8
  %3 = alloca ptr, align 8
  store ptr %0, ptr %3, align 8
  %4 = load ptr, ptr %3, align 8
  %5 = getelementptr inbounds %class.cmLinkItem, ptr %4, i32 0, i32 1
  %6 = load ptr, ptr %5, align 8
  %7 = icmp eq ptr %6, null
  br i1 %7, label %8, label %9

8:                                                ; preds = %1
  store ptr @.str.42, ptr %2, align 8
  br label %23

9:                                                ; preds = %1
  %10 = load ptr, ptr %3, align 8
  %11 = getelementptr inbounds %class.cmLinkItem, ptr %10, i32 0, i32 1
  %12 = load ptr, ptr %11, align 8
  %13 = call noundef i32 @_ZNK17cmGeneratorTarget7GetTypeEv(ptr noundef nonnull align 8 dereferenceable(2728) %12)
  switch i32 %13, label %22 [
    i32 0, label %14
    i32 1, label %15
    i32 2, label %16
    i32 3, label %17
    i32 4, label %18
    i32 5, label %19
    i32 7, label %20
    i32 8, label %21
  ]

14:                                               ; preds = %9
  store ptr @.str.30, ptr %2, align 8
  br label %23

15:                                               ; preds = %9
  store ptr @.str.32, ptr %2, align 8
  br label %23

16:                                               ; preds = %9
  store ptr @.str.34, ptr %2, align 8
  br label %23

17:                                               ; preds = %9
  store ptr @.str.36, ptr %2, align 8
  br label %23

18:                                               ; preds = %9
  store ptr @.str.40, ptr %2, align 8
  br label %23

19:                                               ; preds = %9
  store ptr @.str.44, ptr %2, align 8
  br label %23

20:                                               ; preds = %9
  store ptr @.str.38, ptr %2, align 8
  br label %23

21:                                               ; preds = %9
  br label %22

22:                                               ; preds = %21, %9
  store ptr @.str.42, ptr %2, align 8
  br label %23

23:                                               ; preds = %22, %20, %19, %18, %17, %16, %15, %14, %8
  %24 = load ptr, ptr %2, align 8
  ret ptr %24
}

; Function Attrs: mustprogress uwtable
define dso_local void @_ZN16cmGraphVizWriter16EscapeForDotFileERKNSt7__cxx1112basic_stringIcSt11char_traitsIcESaIcEEE(ptr dead_on_unwind noalias writable sret(%"class.std::__cxx11::basic_string") align 8 %0, ptr noundef nonnull align 8 dereferenceable(32) %1) #4 align 2 {
  %3 = alloca ptr, align 8
  %4 = alloca ptr, align 8
  store ptr %0, ptr %3, align 8
  store ptr %1, ptr %4, align 8
  %5 = load ptr, ptr %4, align 8
  %6 = call noundef ptr @_ZNKSt7__cxx1112basic_stringIcSt11char_traitsIcESaIcEE4dataEv(ptr noundef nonnull align 8 dereferenceable(32) %5) #3
  call void @_ZN5cmsys11SystemTools11EscapeCharsB5cxx11EPKcS2_c(ptr dead_on_unwind writable sret(%"class.std::__cxx11::basic_string") align 8 %0, ptr noundef %6, ptr noundef @.str.24, i8 noundef signext 92)
  ret void
}

; Function Attrs: mustprogress uwtable
define dso_local void @_ZN16cmGraphVizWriter9WriteNodeER21cmGeneratedFileStreamRK10cmLinkItem(ptr noundef nonnull align 8 dereferenceable(1043) %0, ptr noundef nonnull align 8 dereferenceable(348) %1, ptr noundef nonnull align 8 dereferenceable(104) %2) #4 align 2 personality ptr @__gxx_personality_v0 {
  %4 = alloca ptr, align 8
  %5 = alloca ptr, align 8
  %6 = alloca ptr, align 8
  %7 = alloca ptr, align 8
  %8 = alloca ptr, align 8
  %9 = alloca %"class.std::__cxx11::basic_string", align 8
  %10 = alloca %"class.std::__cxx11::basic_string", align 8
  %11 = alloca ptr, align 8
  %12 = alloca i32, align 4
  store ptr %0, ptr %4, align 8
  store ptr %1, ptr %5, align 8
  store ptr %2, ptr %6, align 8
  %13 = load ptr, ptr %4, align 8
  %14 = load ptr, ptr %6, align 8
  %15 = call noundef nonnull align 8 dereferenceable(32) ptr @_ZNK10cmLinkItem5AsStrB5cxx11Ev(ptr noundef nonnull align 8 dereferenceable(104) %14)
  store ptr %15, ptr %7, align 8
  %16 = getelementptr inbounds %class.cmGraphVizWriter, ptr %13, i32 0, i32 12
  %17 = load ptr, ptr %7, align 8
  %18 = call noundef nonnull align 8 dereferenceable(32) ptr @_ZNSt3mapINSt7__cxx1112basic_stringIcSt11char_traitsIcESaIcEEES5_St4lessIS5_ESaISt4pairIKS5_S5_EEEixERS9_(ptr noundef nonnull align 8 dereferenceable(48) %16, ptr noundef nonnull align 8 dereferenceable(32) %17)
  store ptr %18, ptr %8, align 8
  %19 = load ptr, ptr %7, align 8
  call void @_ZNK16cmGraphVizWriter19ItemNameWithAliasesERKNSt7__cxx1112basic_stringIcSt11char_traitsIcESaIcEEE(ptr dead_on_unwind writable sret(%"class.std::__cxx11::basic_string") align 8 %9, ptr noundef nonnull align 8 dereferenceable(1043) %13, ptr noundef nonnull align 8 dereferenceable(32) %19)
  invoke void @_ZN16cmGraphVizWriter16EscapeForDotFileERKNSt7__cxx1112basic_stringIcSt11char_traitsIcESaIcEEE(ptr dead_on_unwind writable sret(%"class.std::__cxx11::basic_string") align 8 %10, ptr noundef nonnull align 8 dereferenceable(32) %9)
          to label %20 unwind label %40

20:                                               ; preds = %3
  %21 = load ptr, ptr %5, align 8
  %22 = invoke noundef nonnull align 8 dereferenceable(8) ptr @_ZStlsISt11char_traitsIcEERSt13basic_ostreamIcT_ES5_PKc(ptr noundef nonnull align 8 dereferenceable(8) %21, ptr noundef @.str.54)
          to label %23 unwind label %44

23:                                               ; preds = %20
  %24 = load ptr, ptr %8, align 8
  %25 = invoke noundef nonnull align 8 dereferenceable(8) ptr @_ZStlsIcSt11char_traitsIcESaIcEERSt13basic_ostreamIT_T0_ES7_RKNSt7__cxx1112basic_stringIS4_S5_T1_EE(ptr noundef nonnull align 8 dereferenceable(8) %22, ptr noundef nonnull align 8 dereferenceable(32) %24)
          to label %26 unwind label %44

26:                                               ; preds = %23
  %27 = invoke noundef nonnull align 8 dereferenceable(8) ptr @_ZStlsISt11char_traitsIcEERSt13basic_ostreamIcT_ES5_PKc(ptr noundef nonnull align 8 dereferenceable(8) %25, ptr noundef @.str.55)
          to label %28 unwind label %44

28:                                               ; preds = %26
  %29 = invoke noundef nonnull align 8 dereferenceable(8) ptr @_ZStlsIcSt11char_traitsIcESaIcEERSt13basic_ostreamIT_T0_ES7_RKNSt7__cxx1112basic_stringIS4_S5_T1_EE(ptr noundef nonnull align 8 dereferenceable(8) %27, ptr noundef nonnull align 8 dereferenceable(32) %10)
          to label %30 unwind label %44

30:                                               ; preds = %28
  %31 = invoke noundef nonnull align 8 dereferenceable(8) ptr @_ZStlsISt11char_traitsIcEERSt13basic_ostreamIcT_ES5_PKc(ptr noundef nonnull align 8 dereferenceable(8) %29, ptr noundef @.str.56)
          to label %32 unwind label %44

32:                                               ; preds = %30
  %33 = load ptr, ptr %6, align 8
  %34 = invoke noundef ptr @_ZN12_GLOBAL__N_117getShapeForTargetERK10cmLinkItem(ptr noundef nonnull align 8 dereferenceable(104) %33)
          to label %35 unwind label %44

35:                                               ; preds = %32
  %36 = invoke noundef nonnull align 8 dereferenceable(8) ptr @_ZStlsISt11char_traitsIcEERSt13basic_ostreamIcT_ES5_PKc(ptr noundef nonnull align 8 dereferenceable(8) %31, ptr noundef %34)
          to label %37 unwind label %44

37:                                               ; preds = %35
  %38 = invoke noundef nonnull align 8 dereferenceable(8) ptr @_ZStlsISt11char_traitsIcEERSt13basic_ostreamIcT_ES5_PKc(ptr noundef nonnull align 8 dereferenceable(8) %36, ptr noundef @.str.57)
          to label %39 unwind label %44

39:                                               ; preds = %37
  call void @_ZNSt7__cxx1112basic_stringIcSt11char_traitsIcESaIcEED1Ev(ptr noundef nonnull align 8 dereferenceable(32) %10) #3
  call void @_ZNSt7__cxx1112basic_stringIcSt11char_traitsIcESaIcEED1Ev(ptr noundef nonnull align 8 dereferenceable(32) %9) #3
  ret void

40:                                               ; preds = %3
  %41 = landingpad { ptr, i32 }
          cleanup
  %42 = extractvalue { ptr, i32 } %41, 0
  store ptr %42, ptr %11, align 8
  %43 = extractvalue { ptr, i32 } %41, 1
  store i32 %43, ptr %12, align 4
  br label %48

44:                                               ; preds = %37, %35, %32, %30, %28, %26, %23, %20
  %45 = landingpad { ptr, i32 }
          cleanup
  %46 = extractvalue { ptr, i32 } %45, 0
  store ptr %46, ptr %11, align 8
  %47 = extractvalue { ptr, i32 } %45, 1
  store i32 %47, ptr %12, align 4
  call void @_ZNSt7__cxx1112basic_stringIcSt11char_traitsIcESaIcEED1Ev(ptr noundef nonnull align 8 dereferenceable(32) %10) #3
  br label %48

48:                                               ; preds = %44, %40
  call void @_ZNSt7__cxx1112basic_stringIcSt11char_traitsIcESaIcEED1Ev(ptr noundef nonnull align 8 dereferenceable(32) %9) #3
  br label %49

49:                                               ; preds = %48
  %50 = load ptr, ptr %11, align 8
  %51 = load i32, ptr %12, align 4
  %52 = insertvalue { ptr, i32 } poison, ptr %50, 0
  %53 = insertvalue { ptr, i32 } %52, i32 %51, 1
  resume { ptr, i32 } %53
}