; Function Attrs: mustprogress uwtable
define dso_local void @_ZN16cmGraphVizWriter9WriteNodeER21cmGeneratedFileStreamRK10cmLinkItem(ptr noundef nonnull align 8 dereferenceable(1043) %0, ptr noundef nonnull align 8 dereferenceable(348) %1, ptr noundef nonnull align 8 dereferenceable(104) %2) local_unnamed_addr #3 align 2 personality ptr @__gxx_personality_v0 {
  %4 = alloca %"class.std::__cxx11::basic_string", align 8
  %5 = alloca %"class.std::__cxx11::basic_string", align 8
  %6 = tail call noundef nonnull align 8 dereferenceable(32) ptr @_ZNK10cmLinkItem5AsStrB5cxx11Ev(ptr noundef nonnull align 8 dereferenceable(104) %2)
  %7 = getelementptr inbounds i8, ptr %0, i64 984
  %8 = tail call noundef nonnull align 8 dereferenceable(32) ptr @_ZNSt3mapINSt7__cxx1112basic_stringIcSt11char_traitsIcESaIcEEES5_St4lessIS5_ESaISt4pairIKS5_S5_EEEixERS9_(ptr noundef nonnull align 8 dereferenceable(48) %7, ptr noundef nonnull align 8 dereferenceable(32) %6)
  call void @_ZNK16cmGraphVizWriter19ItemNameWithAliasesERKNSt7__cxx1112basic_stringIcSt11char_traitsIcESaIcEEE(ptr dead_on_unwind nonnull writable sret(%"class.std::__cxx11::basic_string") align 8 %4, ptr noundef nonnull align 8 dereferenceable(1043) %0, ptr noundef nonnull align 8 dereferenceable(32) %6)
  %9 = call noundef ptr @_ZNKSt7__cxx1112basic_stringIcSt11char_traitsIcESaIcEE4dataEv(ptr noundef nonnull align 8 dereferenceable(32) %4) #21, !noalias !21
  invoke void @_ZN5cmsys11SystemTools11EscapeCharsB5cxx11EPKcS2_c(ptr dead_on_unwind nonnull writable sret(%"class.std::__cxx11::basic_string") align 8 %5, ptr noundef %9, ptr noundef nonnull @.str.24, i8 noundef signext 92)
          to label %_ZN16cmGraphVizWriter16EscapeForDotFileERKNSt7__cxx1112basic_stringIcSt11char_traitsIcESaIcEEE.exit unwind label %30

_ZN16cmGraphVizWriter16EscapeForDotFileERKNSt7__cxx1112basic_stringIcSt11char_traitsIcESaIcEEE.exit: ; preds = %3
  %10 = invoke noundef nonnull align 8 dereferenceable(8) ptr @_ZStlsISt11char_traitsIcEERSt13basic_ostreamIcT_ES5_PKc(ptr noundef nonnull align 8 dereferenceable(8) %1, ptr noundef nonnull @.str.54)
          to label %11 unwind label %32

11:                                               ; preds = %_ZN16cmGraphVizWriter16EscapeForDotFileERKNSt7__cxx1112basic_stringIcSt11char_traitsIcESaIcEEE.exit
  %12 = invoke noundef nonnull align 8 dereferenceable(8) ptr @_ZStlsIcSt11char_traitsIcESaIcEERSt13basic_ostreamIT_T0_ES7_RKNSt7__cxx1112basic_stringIS4_S5_T1_EE(ptr noundef nonnull align 8 dereferenceable(8) %10, ptr noundef nonnull align 8 dereferenceable(32) %8)
          to label %13 unwind label %32

13:                                               ; preds = %11
  %14 = invoke noundef nonnull align 8 dereferenceable(8) ptr @_ZStlsISt11char_traitsIcEERSt13basic_ostreamIcT_ES5_PKc(ptr noundef nonnull align 8 dereferenceable(8) %12, ptr noundef nonnull @.str.55)
          to label %15 unwind label %32

15:                                               ; preds = %13
  %16 = invoke noundef nonnull align 8 dereferenceable(8) ptr @_ZStlsIcSt11char_traitsIcESaIcEERSt13basic_ostreamIT_T0_ES7_RKNSt7__cxx1112basic_stringIS4_S5_T1_EE(ptr noundef nonnull align 8 dereferenceable(8) %14, ptr noundef nonnull align 8 dereferenceable(32) %5)
          to label %17 unwind label %32

17:                                               ; preds = %15
  %18 = invoke noundef nonnull align 8 dereferenceable(8) ptr @_ZStlsISt11char_traitsIcEERSt13basic_ostreamIcT_ES5_PKc(ptr noundef nonnull align 8 dereferenceable(8) %16, ptr noundef nonnull @.str.56)
          to label %19 unwind label %32

19:                                               ; preds = %17
  %20 = getelementptr inbounds i8, ptr %2, i64 32
  %.val = load ptr, ptr %20, align 8
  %21 = icmp eq ptr %.val, null
  br i1 %21, label %_ZN12_GLOBAL__N_117getShapeForTargetERK10cmLinkItem.exit, label %22

22:                                               ; preds = %19
  %23 = invoke noundef i32 @_ZNK17cmGeneratorTarget7GetTypeEv(ptr noundef nonnull align 8 dereferenceable(2728) %.val)
          to label %.noexc unwind label %32

.noexc:                                           ; preds = %22
  %24 = icmp ult i32 %23, 8
  br i1 %24, label %switch.lookup, label %_ZN12_GLOBAL__N_117getShapeForTargetERK10cmLinkItem.exit

switch.lookup:                                    ; preds = %.noexc
  %25 = zext nneg i32 %23 to i64
  %switch.gep = getelementptr inbounds [8 x ptr], ptr @switch.table._ZN16cmGraphVizWriter9WriteNodeER21cmGeneratedFileStreamRK10cmLinkItem, i64 0, i64 %25
  %switch.load = load ptr, ptr %switch.gep, align 8
  br label %_ZN12_GLOBAL__N_117getShapeForTargetERK10cmLinkItem.exit

_ZN12_GLOBAL__N_117getShapeForTargetERK10cmLinkItem.exit: ; preds = %.noexc, %switch.lookup, %19
  %.0.i = phi ptr [ @.str.42, %19 ], [ %switch.load, %switch.lookup ], [ @.str.42, %.noexc ]
  %26 = invoke noundef nonnull align 8 dereferenceable(8) ptr @_ZStlsISt11char_traitsIcEERSt13basic_ostreamIcT_ES5_PKc(ptr noundef nonnull align 8 dereferenceable(8) %18, ptr noundef nonnull %.0.i)
          to label %27 unwind label %32

27:                                               ; preds = %_ZN12_GLOBAL__N_117getShapeForTargetERK10cmLinkItem.exit
  %28 = invoke noundef nonnull align 8 dereferenceable(8) ptr @_ZStlsISt11char_traitsIcEERSt13basic_ostreamIcT_ES5_PKc(ptr noundef nonnull align 8 dereferenceable(8) %26, ptr noundef nonnull @.str.57)
          to label %29 unwind label %32

29:                                               ; preds = %27
  call void @_ZNSt7__cxx1112basic_stringIcSt11char_traitsIcESaIcEED1Ev(ptr noundef nonnull align 8 dereferenceable(32) %5) #21
  call void @_ZNSt7__cxx1112basic_stringIcSt11char_traitsIcESaIcEED1Ev(ptr noundef nonnull align 8 dereferenceable(32) %4) #21
  ret void

30:                                               ; preds = %3
  %31 = landingpad { ptr, i32 }
          cleanup
  br label %34

32:                                               ; preds = %22, %27, %_ZN12_GLOBAL__N_117getShapeForTargetERK10cmLinkItem.exit, %17, %15, %13, %11, %_ZN16cmGraphVizWriter16EscapeForDotFileERKNSt7__cxx1112basic_stringIcSt11char_traitsIcESaIcEEE.exit
  %33 = landingpad { ptr, i32 }
          cleanup
  call void @_ZNSt7__cxx1112basic_stringIcSt11char_traitsIcESaIcEED1Ev(ptr noundef nonnull align 8 dereferenceable(32) %5) #21
  br label %34

34:                                               ; preds = %32, %30
  %.pn = phi { ptr, i32 } [ %33, %32 ], [ %31, %30 ]
  call void @_ZNSt7__cxx1112basic_stringIcSt11char_traitsIcESaIcEED1Ev(ptr noundef nonnull align 8 dereferenceable(32) %4) #21
  resume { ptr, i32 } %.pn
}